; Function Attrs: mustprogress uwtable
define dso_local noundef zeroext i1 @_ZNK4base9ListValue10GetIntegerEmPi(ptr nocapture noundef nonnull readonly align 8 dereferenceable(40) %this, i64 noundef %index, ptr noundef %out_value) local_unnamed_addr #3 align 2 {
entry:
  %list_.i = getelementptr inbounds i8, ptr %this, i64 16
  %_M_finish.i.i = getelementptr inbounds i8, ptr %this, i64 24
  %0 = load ptr, ptr %_M_finish.i.i, align 8
  %1 = load ptr, ptr %list_.i, align 8
  %sub.ptr.lhs.cast.i.i = ptrtoint ptr %0 to i64
  %sub.ptr.rhs.cast.i.i = ptrtoint ptr %1 to i64
  %sub.ptr.sub.i.i = sub i64 %sub.ptr.lhs.cast.i.i, %sub.ptr.rhs.cast.i.i
  %sub.ptr.div.i.i = ashr exact i64 %sub.ptr.sub.i.i, 3
  %cmp.not.i = icmp ugt i64 %sub.ptr.div.i.i, %index
  br i1 %cmp.not.i, label %if.end, label %return

if.end:                                           ; preds = %entry
  %add.ptr.i.i = getelementptr inbounds %"class.std::unique_ptr", ptr %1, i64 %index
  %2 = load ptr, ptr %add.ptr.i.i, align 8
  %vtable = load ptr, ptr %2, align 8
  %vfn = getelementptr inbounds i8, ptr %vtable, i64 24
  %3 = load ptr, ptr %vfn, align 8
  %call2 = tail call noundef zeroext i1 %3(ptr noundef nonnull align 8 dereferenceable(12) %2, ptr noundef %out_value)
  br label %return

return:                                           ; preds = %entry, %if.end
  %retval.0 = phi i1 [ %call2, %if.end ], [ false, %entry ]
  ret i1 %retval.0
}